target datalayout = "e-m:e-p270:32:32-p271:32:32-p272:64:64-i64:64-i128:128-f80:128-n8:16:32:64-S128"
target triple = "x86_64-pc-linux-gnu"

%struct._DlsMat = type { i32, i64, i64, i64, i64, i64, i64, ptr, i64, ptr }

; Function Attrs: nounwind uwtable
define i64 @densePOTRF(ptr noundef %0, i64 noundef %1) #0 {
  %3 = alloca i64, align 8
  %4 = alloca ptr, align 8
  %5 = alloca i64, align 8
  %6 = alloca ptr, align 8
  %7 = alloca ptr, align 8
  %8 = alloca double, align 8
  %9 = alloca i64, align 8
  %10 = alloca i64, align 8
  %11 = alloca i64, align 8
  %12 = alloca i32, align 4
  store ptr %0, ptr %4, align 8, !tbaa !18
  store i64 %1, ptr %5, align 8, !tbaa !19
  call void @llvm.lifetime.start.p0(i64 8, ptr %6) #4
  call void @llvm.lifetime.start.p0(i64 8, ptr %7) #4
  call void @llvm.lifetime.start.p0(i64 8, ptr %8) #4
  call void @llvm.lifetime.start.p0(i64 8, ptr %9) #4
  call void @llvm.lifetime.start.p0(i64 8, ptr %10) #4
  call void @llvm.lifetime.start.p0(i64 8, ptr %11) #4
  store i64 0, ptr %10, align 8, !tbaa !19
  br label %13

13:                                               ; preds = %91, %2
  %14 = load i64, ptr %10, align 8, !tbaa !19
  %15 = load i64, ptr %5, align 8, !tbaa !19
  %16 = icmp slt i64 %14, %15
  br i1 %16, label %17, label %94

17:                                               ; preds = %13
  %18 = load ptr, ptr %4, align 8, !tbaa !18
  %19 = load i64, ptr %10, align 8, !tbaa !19
  %20 = getelementptr inbounds ptr, ptr %18, i64 %19
  %21 = load ptr, ptr %20, align 8, !tbaa !20
  store ptr %21, ptr %6, align 8, !tbaa !20
  %22 = load i64, ptr %10, align 8, !tbaa !19
  %23 = icmp sgt i64 %22, 0
  br i1 %23, label %24, label %62

24:                                               ; preds = %17
  %25 = load i64, ptr %10, align 8, !tbaa !19
  store i64 %25, ptr %9, align 8, !tbaa !19
  br label %26

26:                                               ; preds = %58, %24
  %27 = load i64, ptr %9, align 8, !tbaa !19
  %28 = load i64, ptr %5, align 8, !tbaa !19
  %29 = icmp slt i64 %27, %28
  br i1 %29, label %30, label %61

30:                                               ; preds = %26
  store i64 0, ptr %11, align 8, !tbaa !19
  br label %31

31:                                               ; preds = %54, %30
  %32 = load i64, ptr %11, align 8, !tbaa !19
  %33 = load i64, ptr %10, align 8, !tbaa !19
  %34 = icmp slt i64 %32, %33
  br i1 %34, label %35, label %57

35:                                               ; preds = %31
  %36 = load ptr, ptr %4, align 8, !tbaa !18
  %37 = load i64, ptr %11, align 8, !tbaa !19
  %38 = getelementptr inbounds ptr, ptr %36, i64 %37
  %39 = load ptr, ptr %38, align 8, !tbaa !20
  store ptr %39, ptr %7, align 8, !tbaa !20
  %40 = load ptr, ptr %7, align 8, !tbaa !20
  %41 = load i64, ptr %9, align 8, !tbaa !19
  %42 = getelementptr inbounds double, ptr %40, i64 %41
  %43 = load double, ptr %42, align 8, !tbaa !21
  %44 = load ptr, ptr %7, align 8, !tbaa !20
  %45 = load i64, ptr %10, align 8, !tbaa !19
  %46 = getelementptr inbounds double, ptr %44, i64 %45
  %47 = load double, ptr %46, align 8, !tbaa !21
  %48 = load ptr, ptr %6, align 8, !tbaa !20
  %49 = load i64, ptr %9, align 8, !tbaa !19
  %50 = getelementptr inbounds double, ptr %48, i64 %49
  %51 = load double, ptr %50, align 8, !tbaa !21
  %52 = fneg double %43
  %53 = call double @llvm.fmuladd.f64(double %52, double %47, double %51)
  store double %53, ptr %50, align 8, !tbaa !21
  br label %54

54:                                               ; preds = %35
  %55 = load i64, ptr %11, align 8, !tbaa !19
  %56 = add nsw i64 %55, 1
  store i64 %56, ptr %11, align 8, !tbaa !19
  br label %31, !llvm.loop !35

57:                                               ; preds = %31
  br label %58

58:                                               ; preds = %57
  %59 = load i64, ptr %9, align 8, !tbaa !19
  %60 = add nsw i64 %59, 1
  store i64 %60, ptr %9, align 8, !tbaa !19
  br label %26, !llvm.loop !36

61:                                               ; preds = %26
  br label %62

62:                                               ; preds = %61, %17
  %63 = load ptr, ptr %6, align 8, !tbaa !20
  %64 = load i64, ptr %10, align 8, !tbaa !19
  %65 = getelementptr inbounds double, ptr %63, i64 %64
  %66 = load double, ptr %65, align 8, !tbaa !21
  store double %66, ptr %8, align 8, !tbaa !21
  %67 = load double, ptr %8, align 8, !tbaa !21
  %68 = fcmp ole double %67, 0.000000e+00
  br i1 %68, label %69, label %72

69:                                               ; preds = %62
  %70 = load i64, ptr %10, align 8, !tbaa !19
  %71 = add nsw i64 %70, 1
  store i64 %71, ptr %3, align 8
  store i32 1, ptr %12, align 4
  br label %95

72:                                               ; preds = %62
  %73 = load double, ptr %8, align 8, !tbaa !21
  %74 = call double @SUNRsqrt(double noundef %73)
  store double %74, ptr %8, align 8, !tbaa !21
  %75 = load i64, ptr %10, align 8, !tbaa !19
  store i64 %75, ptr %9, align 8, !tbaa !19
  br label %76

76:                                               ; preds = %87, %72
  %77 = load i64, ptr %9, align 8, !tbaa !19
  %78 = load i64, ptr %5, align 8, !tbaa !19
  %79 = icmp slt i64 %77, %78
  br i1 %79, label %80, label %90

80:                                               ; preds = %76
  %81 = load double, ptr %8, align 8, !tbaa !21
  %82 = load ptr, ptr %6, align 8, !tbaa !20
  %83 = load i64, ptr %9, align 8, !tbaa !19
  %84 = getelementptr inbounds double, ptr %82, i64 %83
  %85 = load double, ptr %84, align 8, !tbaa !21
  %86 = fdiv double %85, %81
  store double %86, ptr %84, align 8, !tbaa !21
  br label %87

87:                                               ; preds = %80
  %88 = load i64, ptr %9, align 8, !tbaa !19
  %89 = add nsw i64 %88, 1
  store i64 %89, ptr %9, align 8, !tbaa !19
  br label %76, !llvm.loop !37

90:                                               ; preds = %76
  br label %91

91:                                               ; preds = %90
  %92 = load i64, ptr %10, align 8, !tbaa !19
  %93 = add nsw i64 %92, 1
  store i64 %93, ptr %10, align 8, !tbaa !19
  br label %13, !llvm.loop !38

94:                                               ; preds = %13
  store i64 0, ptr %3, align 8
  store i32 1, ptr %12, align 4
  br label %95

95:                                               ; preds = %94, %69
  call void @llvm.lifetime.end.p0(i64 8, ptr %11) #4
  call void @llvm.lifetime.end.p0(i64 8, ptr %10) #4
  call void @llvm.lifetime.end.p0(i64 8, ptr %9) #4
  call void @llvm.lifetime.end.p0(i64 8, ptr %8) #4
  call void @llvm.lifetime.end.p0(i64 8, ptr %7) #4
  call void @llvm.lifetime.end.p0(i64 8, ptr %6) #4
  %96 = load i64, ptr %3, align 8
  ret i64 %96
}

; Function Attrs: nounwind uwtable
define i64 @DensePOTRF(ptr noundef %0) #0 {
  %2 = alloca ptr, align 8
  store ptr %0, ptr %2, align 8, !tbaa !3
  %3 = load ptr, ptr %2, align 8, !tbaa !3
  %4 = getelementptr inbounds nuw %struct._DlsMat, ptr %3, i32 0, i32 9
  %5 = load ptr, ptr %4, align 8, !tbaa !10
  %6 = load ptr, ptr %2, align 8, !tbaa !3
  %7 = getelementptr inbounds nuw %struct._DlsMat, ptr %6, i32 0, i32 1
  %8 = load i64, ptr %7, align 8, !tbaa !16
  %9 = call i64 @densePOTRF(ptr noundef %5, i64 noundef %8)
  ret i64 %9
}