; Function Attrs: nounwind uwtable
define i64 @DensePOTRF(ptr noundef readonly captures(none) %0) local_unnamed_addr #0 {
  %2 = getelementptr inbounds nuw i8, ptr %0, i64 72
  %3 = load ptr, ptr %2, align 8, !tbaa !3
  %4 = getelementptr inbounds nuw i8, ptr %0, i64 8
  %5 = load i64, ptr %4, align 8, !tbaa !12
  %6 = icmp sgt i64 %5, 0
  br i1 %6, label %.lr.ph46.i, label %densePOTRF.exit

.lr.ph46.i:                                       ; preds = %1, %._crit_edge.i
  %.03344.i = phi i64 [ %33, %._crit_edge.i ], [ 0, %1 ]
  %7 = getelementptr inbounds nuw ptr, ptr %3, i64 %.03344.i
  %8 = load ptr, ptr %7, align 8, !tbaa !16
  %.not.not.i = icmp eq i64 %.03344.i, 0
  br i1 %.not.not.i, label %.loopexit.i, label %.preheader.i

.preheader.i:                                     ; preds = %.lr.ph46.i, %21
  %.03442.i = phi i64 [ %22, %21 ], [ %.03344.i, %.lr.ph46.i ]
  %9 = getelementptr inbounds nuw double, ptr %8, i64 %.03442.i
  %.promoted.i = load double, ptr %9, align 8, !tbaa !17
  br label %10

10:                                               ; preds = %10, %.preheader.i
  %.041.i = phi i64 [ 0, %.preheader.i ], [ %20, %10 ]
  %11 = phi double [ %.promoted.i, %.preheader.i ], [ %19, %10 ]
  %12 = getelementptr inbounds nuw ptr, ptr %3, i64 %.041.i
  %13 = load ptr, ptr %12, align 8, !tbaa !16
  %14 = getelementptr inbounds nuw double, ptr %13, i64 %.03442.i
  %15 = load double, ptr %14, align 8, !tbaa !17
  %16 = getelementptr inbounds nuw double, ptr %13, i64 %.03344.i
  %17 = load double, ptr %16, align 8, !tbaa !17
  %18 = fneg double %15
  %19 = tail call double @llvm.fmuladd.f64(double %18, double %17, double %11)
  store double %19, ptr %9, align 8, !tbaa !17
  %20 = add nuw nsw i64 %.041.i, 1
  %exitcond.not.i = icmp eq i64 %20, %.03344.i
  br i1 %exitcond.not.i, label %21, label %10, !llvm.loop !30

21:                                               ; preds = %10
  %22 = add nuw nsw i64 %.03442.i, 1
  %exitcond48.not.i = icmp eq i64 %22, %5
  br i1 %exitcond48.not.i, label %.loopexit.i, label %.preheader.i, !llvm.loop !31

.loopexit.i:                                      ; preds = %21, %.lr.ph46.i
  %23 = getelementptr inbounds nuw double, ptr %8, i64 %.03344.i
  %24 = load double, ptr %23, align 8, !tbaa !17
  %25 = fcmp ugt double %24, 0.000000e+00
  br i1 %25, label %.lr.ph.preheader.i, label %26

26:                                               ; preds = %.loopexit.i
  %27 = add nuw nsw i64 %.03344.i, 1
  br label %densePOTRF.exit

.lr.ph.preheader.i:                               ; preds = %.loopexit.i
  %28 = tail call double @SUNRsqrt(double noundef %24) #6
  br label %.lr.ph.i

.lr.ph.i:                                         ; preds = %.lr.ph.i, %.lr.ph.preheader.i
  %.143.i = phi i64 [ %32, %.lr.ph.i ], [ %.03344.i, %.lr.ph.preheader.i ]
  %29 = getelementptr inbounds nuw double, ptr %8, i64 %.143.i
  %30 = load double, ptr %29, align 8, !tbaa !17
  %31 = fdiv double %30, %28
  store double %31, ptr %29, align 8, !tbaa !17
  %32 = add nuw nsw i64 %.143.i, 1
  %exitcond49.not.i = icmp eq i64 %32, %5
  br i1 %exitcond49.not.i, label %._crit_edge.i, label %.lr.ph.i, !llvm.loop !32

._crit_edge.i:                                    ; preds = %.lr.ph.i
  %33 = add nuw nsw i64 %.03344.i, 1
  %exitcond50.not.i = icmp eq i64 %33, %5
  br i1 %exitcond50.not.i, label %densePOTRF.exit, label %.lr.ph46.i, !llvm.loop !33

densePOTRF.exit:                                  ; preds = %._crit_edge.i, %1, %26
  %.035.i = phi i64 [ %27, %26 ], [ 0, %1 ], [ 0, %._crit_edge.i ]
  ret i64 %.035.i
}